(isearchMetaData
SearchMetaData
p0
(dp1
S'command_list'
p2
(lp3
S'cmd1 smth -s -d tag1 sdf\n'
p4
aS'rm \n'
p5
aS'pwd\n'
p6
aS'cd \n'
p7
aS'cmd2 gmk -s -d \n'
p8
aS'cmd3 tage sd\n'
p9
aS'gmk target = pizza\n'
p10
asb.